; Function Attrs: nofree norecurse nosync nounwind memory(readwrite, inaccessiblemem: none) uwtable
define void @Emb_ManSetValue(ptr noundef readonly captures(none) %0) local_unnamed_addr #7 {
  %2 = getelementptr i8, ptr %0, i64 40
  %3 = getelementptr inbounds nuw i8, ptr %0, i64 48
  %4 = load i32, ptr %3, align 8, !tbaa !46
  %5 = icmp sgt i32 %4, 0
  br i1 %5, label %.lr.ph, label %.critedge

.lr.ph:                                           ; preds = %1, %6
  %.012 = phi i32 [ %9, %6 ], [ 0, %1 ]
  %.0711 = phi i32 [ %14, %6 ], [ 0, %1 ]
  %.val = load ptr, ptr %2, align 8, !tbaa !47
  %.not = icmp eq ptr %.val, null
  br i1 %.not, label %.critedge, label %6

6:                                                ; preds = %.lr.ph
  %7 = zext i32 %.0711 to i64
  %8 = getelementptr inbounds nuw i32, ptr %.val, i64 %7
  %9 = add nuw nsw i32 %.012, 1
  %10 = getelementptr inbounds nuw i8, ptr %8, i64 16
  store i32 %.012, ptr %10, align 4, !tbaa !8
  %.val9 = load i32, ptr %8, align 4
  %11 = getelementptr i8, ptr %8, i64 4
  %.val10 = load i32, ptr %11, align 4, !tbaa !52
  %12 = lshr i32 %.val9, 4
  %narrow.i = add i32 %.0711, 5
  %13 = add i32 %narrow.i, %12
  %14 = add i32 %13, %.val10
  %15 = load i32, ptr %3, align 8, !tbaa !46
  %16 = icmp slt i32 %14, %15
  br i1 %16, label %.lr.ph, label %.critedge, !llvm.loop !71

.critedge:                                        ; preds = %.lr.ph, %6, %1
  ret void
}